; Function Attrs: mustprogress nounwind uwtable
define hidden void @_ZN10SerialHeap25safepoint_synchronize_endEv(ptr nocapture nonnull readnone align 8 %0) unnamed_addr #0 align 2 {
  %2 = load i8, ptr @UseStringDeduplication, align 1
  %3 = trunc i8 %2 to i1
  br i1 %3, label %4, label %5

4:                                                ; preds = %1
  tail call void @_ZN20SuspendibleThreadSet13desynchronizeEv() #16
  br label %5

5:                                                ; preds = %4, %1
  ret void
}